target datalayout = "e-m:e-p270:32:32-p271:32:32-p272:64:64-i64:64-i128:128-f80:128-n8:16:32:64-S128"
target triple = "x86_64-pc-linux-gnu"

%"struct.Luau::CodeGen::BuiltinImplResult" = type { i32, i32 }
%"struct.Luau::CodeGen::IrOp" = type { i32 }

; Function Attrs: mustprogress uwtable
define internal i32 @_ZN4Luau7CodeGenL17builtinLoadDoubleERNS0_9IrBuilderENS0_4IrOpE(ptr noundef nonnull align 8 dereferenceable(752) %0, i32 %1) #2 {
  %3 = alloca %"struct.Luau::CodeGen::IrOp", align 4
  %4 = alloca %"struct.Luau::CodeGen::IrOp", align 4
  %5 = alloca ptr, align 8
  %6 = alloca %"struct.Luau::CodeGen::IrOp", align 4
  %7 = getelementptr inbounds nuw %"struct.Luau::CodeGen::IrOp", ptr %4, i32 0, i32 0
  store i32 %1, ptr %7, align 4
  store ptr %0, ptr %5, align 8, !tbaa !20
  %8 = load i32, ptr %4, align 4
  %9 = and i32 %8, 15
  %10 = icmp eq i32 %9, 2
  br i1 %10, label %11, label %12

11:                                               ; preds = %2
  call void @llvm.memcpy.p0.p0.i64(ptr align 4 %3, ptr align 4 %4, i64 4, i1 false), !tbaa.struct !28
  br label %18

12:                                               ; preds = %2
  %13 = load ptr, ptr %5, align 8, !tbaa !20
  call void @llvm.memcpy.p0.p0.i64(ptr align 4 %6, ptr align 4 %4, i64 4, i1 false), !tbaa.struct !28
  %14 = getelementptr inbounds nuw %"struct.Luau::CodeGen::IrOp", ptr %6, i32 0, i32 0
  %15 = load i32, ptr %14, align 4
  %16 = call i32 @_ZN4Luau7CodeGen9IrBuilder4instENS0_5IrCmdENS0_4IrOpE(ptr noundef nonnull align 8 dereferenceable(752) %13, i8 noundef zeroext 3, i32 %15)
  %17 = getelementptr inbounds nuw %"struct.Luau::CodeGen::IrOp", ptr %3, i32 0, i32 0
  store i32 %16, ptr %17, align 4
  br label %18

18:                                               ; preds = %12, %11
  %19 = getelementptr inbounds nuw %"struct.Luau::CodeGen::IrOp", ptr %3, i32 0, i32 0
  %20 = load i32, ptr %19, align 4
  ret i32 %20
}

; Function Attrs: mustprogress uwtable
define internal void @_ZN4Luau7CodeGenL18builtinCheckDoubleERNS0_9IrBuilderENS0_4IrOpEi(ptr noundef nonnull align 8 dereferenceable(752) %0, i32 %1, i32 noundef %2) #2 {
  %4 = alloca %"struct.Luau::CodeGen::IrOp", align 4
  %5 = alloca ptr, align 8
  %6 = alloca i32, align 4
  %7 = alloca %"struct.Luau::CodeGen::IrOp", align 4
  %8 = alloca %"struct.Luau::CodeGen::IrOp", align 4
  %9 = getelementptr inbounds nuw %"struct.Luau::CodeGen::IrOp", ptr %4, i32 0, i32 0
  store i32 %1, ptr %9, align 4
  store ptr %0, ptr %5, align 8, !tbaa !20
  store i32 %2, ptr %6, align 4, !tbaa !22
  %10 = load i32, ptr %4, align 4
  %11 = and i32 %10, 15
  %12 = icmp eq i32 %11, 2
  br i1 %12, label %13, label %14

13:                                               ; preds = %3
  br label %24

14:                                               ; preds = %3
  %15 = load ptr, ptr %5, align 8, !tbaa !20
  call void @llvm.memcpy.p0.p0.i64(ptr align 4 %7, ptr align 4 %4, i64 4, i1 false), !tbaa.struct !28
  %16 = load ptr, ptr %5, align 8, !tbaa !20
  %17 = load i32, ptr %6, align 4, !tbaa !22
  %18 = call i32 @_ZN4Luau7CodeGen9IrBuilder6vmExitEj(ptr noundef nonnull align 8 dereferenceable(752) %16, i32 noundef %17)
  %19 = getelementptr inbounds nuw %"struct.Luau::CodeGen::IrOp", ptr %8, i32 0, i32 0
  store i32 %18, ptr %19, align 4
  %20 = getelementptr inbounds nuw %"struct.Luau::CodeGen::IrOp", ptr %7, i32 0, i32 0
  %21 = load i32, ptr %20, align 4
  %22 = getelementptr inbounds nuw %"struct.Luau::CodeGen::IrOp", ptr %8, i32 0, i32 0
  %23 = load i32, ptr %22, align 4
  call void @_ZN4Luau7CodeGen9IrBuilder15loadAndCheckTagENS0_4IrOpEhS2_(ptr noundef nonnull align 8 dereferenceable(752) %15, i32 %21, i8 noundef zeroext 3, i32 %23)
  br label %24

24:                                               ; preds = %14, %13
  ret void
}

; Function Attrs: mustprogress uwtable
define internal i64 @_ZN4Luau7CodeGenL27translateBuiltinBit32RotateERNS0_9IrBuilderENS0_5IrCmdEiiiNS0_4IrOpEii(ptr noundef nonnull align 8 dereferenceable(752) %0, i8 noundef zeroext %1, i32 noundef %2, i32 noundef %3, i32 noundef %4, i32 %5, i32 noundef %6, i32 noundef %7) #2 {
  %9 = alloca %"struct.Luau::CodeGen::BuiltinImplResult", align 4
  %10 = alloca %"struct.Luau::CodeGen::IrOp", align 4
  %11 = alloca ptr, align 8
  %12 = alloca i8, align 1
  %13 = alloca i32, align 4
  %14 = alloca i32, align 4
  %15 = alloca i32, align 4
  %16 = alloca i32, align 4
  %17 = alloca i32, align 4
  %18 = alloca %"struct.Luau::CodeGen::IrOp", align 4
  %19 = alloca %"struct.Luau::CodeGen::IrOp", align 4
  %20 = alloca %"struct.Luau::CodeGen::IrOp", align 4
  %21 = alloca %"struct.Luau::CodeGen::IrOp", align 4
  %22 = alloca %"struct.Luau::CodeGen::IrOp", align 4
  %23 = alloca %"struct.Luau::CodeGen::IrOp", align 4
  %24 = alloca %"struct.Luau::CodeGen::IrOp", align 4
  %25 = alloca %"struct.Luau::CodeGen::IrOp", align 4
  %26 = alloca %"struct.Luau::CodeGen::IrOp", align 4
  %27 = alloca %"struct.Luau::CodeGen::IrOp", align 4
  %28 = alloca %"struct.Luau::CodeGen::IrOp", align 4
  %29 = alloca %"struct.Luau::CodeGen::IrOp", align 4
  %30 = alloca %"struct.Luau::CodeGen::IrOp", align 4
  %31 = alloca %"struct.Luau::CodeGen::IrOp", align 4
  %32 = alloca %"struct.Luau::CodeGen::IrOp", align 4
  %33 = alloca %"struct.Luau::CodeGen::IrOp", align 4
  %34 = alloca %"struct.Luau::CodeGen::IrOp", align 4
  %35 = alloca %"struct.Luau::CodeGen::IrOp", align 4
  %36 = alloca %"struct.Luau::CodeGen::IrOp", align 4
  %37 = alloca %"struct.Luau::CodeGen::IrOp", align 4
  %38 = alloca %"struct.Luau::CodeGen::IrOp", align 4
  %39 = getelementptr inbounds nuw %"struct.Luau::CodeGen::IrOp", ptr %10, i32 0, i32 0
  store i32 %5, ptr %39, align 4
  store ptr %0, ptr %11, align 8, !tbaa !20
  store i8 %1, ptr %12, align 1, !tbaa !32
  store i32 %2, ptr %13, align 4, !tbaa !22
  store i32 %3, ptr %14, align 4, !tbaa !22
  store i32 %4, ptr %15, align 4, !tbaa !22
  store i32 %6, ptr %16, align 4, !tbaa !22
  store i32 %7, ptr %17, align 4, !tbaa !22
  %40 = load i32, ptr %13, align 4, !tbaa !22
  %41 = icmp slt i32 %40, 2
  br i1 %41, label %45, label %42

42:                                               ; preds = %8
  %43 = load i32, ptr %16, align 4, !tbaa !22
  %44 = icmp sgt i32 %43, 1
  br i1 %44, label %45, label %48

45:                                               ; preds = %42, %8
  %46 = getelementptr inbounds nuw %"struct.Luau::CodeGen::BuiltinImplResult", ptr %9, i32 0, i32 0
  store i32 0, ptr %46, align 4, !tbaa !24
  %47 = getelementptr inbounds nuw %"struct.Luau::CodeGen::BuiltinImplResult", ptr %9, i32 0, i32 1
  store i32 -1, ptr %47, align 4, !tbaa !27
  br label %134

48:                                               ; preds = %42
  %49 = load ptr, ptr %11, align 8, !tbaa !20
  %50 = load ptr, ptr %11, align 8, !tbaa !20
  %51 = load i32, ptr %15, align 4, !tbaa !22
  %52 = trunc i32 %51 to i8
  %53 = call i32 @_ZN4Luau7CodeGen9IrBuilder5vmRegEh(ptr noundef nonnull align 8 dereferenceable(752) %50, i8 noundef zeroext %52)
  %54 = getelementptr inbounds nuw %"struct.Luau::CodeGen::IrOp", ptr %18, i32 0, i32 0
  store i32 %53, ptr %54, align 4
  %55 = load i32, ptr %17, align 4, !tbaa !22
  %56 = getelementptr inbounds nuw %"struct.Luau::CodeGen::IrOp", ptr %18, i32 0, i32 0
  %57 = load i32, ptr %56, align 4
  call void @_ZN4Luau7CodeGenL18builtinCheckDoubleERNS0_9IrBuilderENS0_4IrOpEi(ptr noundef nonnull align 8 dereferenceable(752) %49, i32 %57, i32 noundef %55)
  %58 = load ptr, ptr %11, align 8, !tbaa !20
  call void @llvm.memcpy.p0.p0.i64(ptr align 4 %19, ptr align 4 %10, i64 4, i1 false), !tbaa.struct !28
  %59 = load i32, ptr %17, align 4, !tbaa !22
  %60 = getelementptr inbounds nuw %"struct.Luau::CodeGen::IrOp", ptr %19, i32 0, i32 0
  %61 = load i32, ptr %60, align 4
  call void @_ZN4Luau7CodeGenL18builtinCheckDoubleERNS0_9IrBuilderENS0_4IrOpEi(ptr noundef nonnull align 8 dereferenceable(752) %58, i32 %61, i32 noundef %59)
  call void @llvm.lifetime.start.p0(i64 4, ptr %20) #11
  %62 = load ptr, ptr %11, align 8, !tbaa !20
  %63 = load ptr, ptr %11, align 8, !tbaa !20
  %64 = load i32, ptr %15, align 4, !tbaa !22
  %65 = trunc i32 %64 to i8
  %66 = call i32 @_ZN4Luau7CodeGen9IrBuilder5vmRegEh(ptr noundef nonnull align 8 dereferenceable(752) %63, i8 noundef zeroext %65)
  %67 = getelementptr inbounds nuw %"struct.Luau::CodeGen::IrOp", ptr %21, i32 0, i32 0
  store i32 %66, ptr %67, align 4
  %68 = getelementptr inbounds nuw %"struct.Luau::CodeGen::IrOp", ptr %21, i32 0, i32 0
  %69 = load i32, ptr %68, align 4
  %70 = call i32 @_ZN4Luau7CodeGenL17builtinLoadDoubleERNS0_9IrBuilderENS0_4IrOpE(ptr noundef nonnull align 8 dereferenceable(752) %62, i32 %69)
  %71 = getelementptr inbounds nuw %"struct.Luau::CodeGen::IrOp", ptr %20, i32 0, i32 0
  store i32 %70, ptr %71, align 4
  call void @llvm.lifetime.start.p0(i64 4, ptr %22) #11
  %72 = load ptr, ptr %11, align 8, !tbaa !20
  call void @llvm.memcpy.p0.p0.i64(ptr align 4 %23, ptr align 4 %10, i64 4, i1 false), !tbaa.struct !28
  %73 = getelementptr inbounds nuw %"struct.Luau::CodeGen::IrOp", ptr %23, i32 0, i32 0
  %74 = load i32, ptr %73, align 4
  %75 = call i32 @_ZN4Luau7CodeGenL17builtinLoadDoubleERNS0_9IrBuilderENS0_4IrOpE(ptr noundef nonnull align 8 dereferenceable(752) %72, i32 %74)
  %76 = getelementptr inbounds nuw %"struct.Luau::CodeGen::IrOp", ptr %22, i32 0, i32 0
  store i32 %75, ptr %76, align 4
  call void @llvm.lifetime.start.p0(i64 4, ptr %24) #11
  %77 = load ptr, ptr %11, align 8, !tbaa !20
  call void @llvm.memcpy.p0.p0.i64(ptr align 4 %25, ptr align 4 %20, i64 4, i1 false), !tbaa.struct !28
  %78 = getelementptr inbounds nuw %"struct.Luau::CodeGen::IrOp", ptr %25, i32 0, i32 0
  %79 = load i32, ptr %78, align 4
  %80 = call i32 @_ZN4Luau7CodeGen9IrBuilder4instENS0_5IrCmdENS0_4IrOpE(ptr noundef nonnull align 8 dereferenceable(752) %77, i8 noundef zeroext 66, i32 %79)
  %81 = getelementptr inbounds nuw %"struct.Luau::CodeGen::IrOp", ptr %24, i32 0, i32 0
  store i32 %80, ptr %81, align 4
  call void @llvm.lifetime.start.p0(i64 4, ptr %26) #11
  %82 = load ptr, ptr %11, align 8, !tbaa !20
  call void @llvm.memcpy.p0.p0.i64(ptr align 4 %27, ptr align 4 %22, i64 4, i1 false), !tbaa.struct !28
  %83 = getelementptr inbounds nuw %"struct.Luau::CodeGen::IrOp", ptr %27, i32 0, i32 0
  %84 = load i32, ptr %83, align 4
  %85 = call i32 @_ZN4Luau7CodeGen9IrBuilder4instENS0_5IrCmdENS0_4IrOpE(ptr noundef nonnull align 8 dereferenceable(752) %82, i8 noundef zeroext 65, i32 %84)
  %86 = getelementptr inbounds nuw %"struct.Luau::CodeGen::IrOp", ptr %26, i32 0, i32 0
  store i32 %85, ptr %86, align 4
  call void @llvm.lifetime.start.p0(i64 4, ptr %28) #11
  %87 = load ptr, ptr %11, align 8, !tbaa !20
  %88 = load i8, ptr %12, align 1, !tbaa !32
  call void @llvm.memcpy.p0.p0.i64(ptr align 4 %29, ptr align 4 %24, i64 4, i1 false), !tbaa.struct !28
  call void @llvm.memcpy.p0.p0.i64(ptr align 4 %30, ptr align 4 %26, i64 4, i1 false), !tbaa.struct !28
  %89 = getelementptr inbounds nuw %"struct.Luau::CodeGen::IrOp", ptr %29, i32 0, i32 0
  %90 = load i32, ptr %89, align 4
  %91 = getelementptr inbounds nuw %"struct.Luau::CodeGen::IrOp", ptr %30, i32 0, i32 0
  %92 = load i32, ptr %91, align 4
  %93 = call i32 @_ZN4Luau7CodeGen9IrBuilder4instENS0_5IrCmdENS0_4IrOpES3_(ptr noundef nonnull align 8 dereferenceable(752) %87, i8 noundef zeroext %88, i32 %90, i32 %92)
  %94 = getelementptr inbounds nuw %"struct.Luau::CodeGen::IrOp", ptr %28, i32 0, i32 0
  store i32 %93, ptr %94, align 4
  call void @llvm.lifetime.start.p0(i64 4, ptr %31) #11
  %95 = load ptr, ptr %11, align 8, !tbaa !20
  call void @llvm.memcpy.p0.p0.i64(ptr align 4 %32, ptr align 4 %28, i64 4, i1 false), !tbaa.struct !28
  %96 = getelementptr inbounds nuw %"struct.Luau::CodeGen::IrOp", ptr %32, i32 0, i32 0
  %97 = load i32, ptr %96, align 4
  %98 = call i32 @_ZN4Luau7CodeGen9IrBuilder4instENS0_5IrCmdENS0_4IrOpE(ptr noundef nonnull align 8 dereferenceable(752) %95, i8 noundef zeroext 64, i32 %97)
  %99 = getelementptr inbounds nuw %"struct.Luau::CodeGen::IrOp", ptr %31, i32 0, i32 0
  store i32 %98, ptr %99, align 4
  %100 = load ptr, ptr %11, align 8, !tbaa !20
  %101 = load ptr, ptr %11, align 8, !tbaa !20
  %102 = load i32, ptr %14, align 4, !tbaa !22
  %103 = trunc i32 %102 to i8
  %104 = call i32 @_ZN4Luau7CodeGen9IrBuilder5vmRegEh(ptr noundef nonnull align 8 dereferenceable(752) %101, i8 noundef zeroext %103)
  %105 = getelementptr inbounds nuw %"struct.Luau::CodeGen::IrOp", ptr %33, i32 0, i32 0
  store i32 %104, ptr %105, align 4
  call void @llvm.memcpy.p0.p0.i64(ptr align 4 %34, ptr align 4 %31, i64 4, i1 false), !tbaa.struct !28
  %106 = getelementptr inbounds nuw %"struct.Luau::CodeGen::IrOp", ptr %33, i32 0, i32 0
  %107 = load i32, ptr %106, align 4
  %108 = getelementptr inbounds nuw %"struct.Luau::CodeGen::IrOp", ptr %34, i32 0, i32 0
  %109 = load i32, ptr %108, align 4
  %110 = call i32 @_ZN4Luau7CodeGen9IrBuilder4instENS0_5IrCmdENS0_4IrOpES3_(ptr noundef nonnull align 8 dereferenceable(752) %100, i8 noundef zeroext 15, i32 %107, i32 %109)
  %111 = getelementptr inbounds nuw %"struct.Luau::CodeGen::IrOp", ptr %35, i32 0, i32 0
  store i32 %110, ptr %111, align 4
  %112 = load i32, ptr %14, align 4, !tbaa !22
  %113 = load i32, ptr %15, align 4, !tbaa !22
  %114 = icmp ne i32 %112, %113
  br i1 %114, label %115, label %131

115:                                              ; preds = %48
  %116 = load ptr, ptr %11, align 8, !tbaa !20
  %117 = load ptr, ptr %11, align 8, !tbaa !20
  %118 = load i32, ptr %14, align 4, !tbaa !22
  %119 = trunc i32 %118 to i8
  %120 = call i32 @_ZN4Luau7CodeGen9IrBuilder5vmRegEh(ptr noundef nonnull align 8 dereferenceable(752) %117, i8 noundef zeroext %119)
  %121 = getelementptr inbounds nuw %"struct.Luau::CodeGen::IrOp", ptr %36, i32 0, i32 0
  store i32 %120, ptr %121, align 4
  %122 = load ptr, ptr %11, align 8, !tbaa !20
  %123 = call i32 @_ZN4Luau7CodeGen9IrBuilder8constTagEh(ptr noundef nonnull align 8 dereferenceable(752) %122, i8 noundef zeroext 3)
  %124 = getelementptr inbounds nuw %"struct.Luau::CodeGen::IrOp", ptr %37, i32 0, i32 0
  store i32 %123, ptr %124, align 4
  %125 = getelementptr inbounds nuw %"struct.Luau::CodeGen::IrOp", ptr %36, i32 0, i32 0
  %126 = load i32, ptr %125, align 4
  %127 = getelementptr inbounds nuw %"struct.Luau::CodeGen::IrOp", ptr %37, i32 0, i32 0
  %128 = load i32, ptr %127, align 4
  %129 = call i32 @_ZN4Luau7CodeGen9IrBuilder4instENS0_5IrCmdENS0_4IrOpES3_(ptr noundef nonnull align 8 dereferenceable(752) %116, i8 noundef zeroext 12, i32 %126, i32 %128)
  %130 = getelementptr inbounds nuw %"struct.Luau::CodeGen::IrOp", ptr %38, i32 0, i32 0
  store i32 %129, ptr %130, align 4
  br label %131

131:                                              ; preds = %115, %48
  %132 = getelementptr inbounds nuw %"struct.Luau::CodeGen::BuiltinImplResult", ptr %9, i32 0, i32 0
  store i32 2, ptr %132, align 4, !tbaa !24
  %133 = getelementptr inbounds nuw %"struct.Luau::CodeGen::BuiltinImplResult", ptr %9, i32 0, i32 1
  store i32 1, ptr %133, align 4, !tbaa !27
  call void @llvm.lifetime.end.p0(i64 4, ptr %31) #11
  call void @llvm.lifetime.end.p0(i64 4, ptr %28) #11
  call void @llvm.lifetime.end.p0(i64 4, ptr %26) #11
  call void @llvm.lifetime.end.p0(i64 4, ptr %24) #11
  call void @llvm.lifetime.end.p0(i64 4, ptr %22) #11
  call void @llvm.lifetime.end.p0(i64 4, ptr %20) #11
  br label %134

134:                                              ; preds = %131, %45
  %135 = load i64, ptr %9, align 4
  ret i64 %135
}