; Function Attrs: mustprogress uwtable
define internal fastcc range(i64 -4294967296, 4294967299) i64 @_ZN4Luau7CodeGenL27translateBuiltinBit32RotateERNS0_9IrBuilderENS0_5IrCmdEiiiNS0_4IrOpEii(ptr noundef nonnull align 8 dereferenceable(752) %0, i8 noundef zeroext range(i8 126, -128) %1, i32 noundef range(i32 0, -1) %2, i32 noundef %3, i32 noundef %4, i32 %5, i32 noundef %6, i32 noundef %7) unnamed_addr #0 {
  %9 = icmp slt i32 %2, 2
  %10 = icmp sgt i32 %6, 1
  %or.cond = or i1 %9, %10
  br i1 %or.cond, label %40, label %11

11:                                               ; preds = %8
  %12 = trunc i32 %4 to i8
  %13 = tail call i32 @_ZN4Luau7CodeGen9IrBuilder5vmRegEh(ptr noundef nonnull align 8 dereferenceable(752) %0, i8 noundef zeroext %12)
  %14 = and i32 %13, 15
  %15 = icmp eq i32 %14, 2
  br i1 %15, label %_ZN4Luau7CodeGenL18builtinCheckDoubleERNS0_9IrBuilderENS0_4IrOpEi.exit, label %16

16:                                               ; preds = %11
  %17 = tail call i32 @_ZN4Luau7CodeGen9IrBuilder6vmExitEj(ptr noundef nonnull align 8 dereferenceable(752) %0, i32 noundef %7)
  tail call void @_ZN4Luau7CodeGen9IrBuilder15loadAndCheckTagENS0_4IrOpEhS2_(ptr noundef nonnull align 8 dereferenceable(752) %0, i32 %13, i8 noundef zeroext 3, i32 %17)
  br label %_ZN4Luau7CodeGenL18builtinCheckDoubleERNS0_9IrBuilderENS0_4IrOpEi.exit

_ZN4Luau7CodeGenL18builtinCheckDoubleERNS0_9IrBuilderENS0_4IrOpEi.exit: ; preds = %11, %16
  %18 = and i32 %5, 15
  %19 = icmp eq i32 %18, 2
  br i1 %19, label %_ZN4Luau7CodeGenL18builtinCheckDoubleERNS0_9IrBuilderENS0_4IrOpEi.exit49, label %20

20:                                               ; preds = %_ZN4Luau7CodeGenL18builtinCheckDoubleERNS0_9IrBuilderENS0_4IrOpEi.exit
  %21 = tail call i32 @_ZN4Luau7CodeGen9IrBuilder6vmExitEj(ptr noundef nonnull align 8 dereferenceable(752) %0, i32 noundef %7)
  tail call void @_ZN4Luau7CodeGen9IrBuilder15loadAndCheckTagENS0_4IrOpEhS2_(ptr noundef nonnull align 8 dereferenceable(752) %0, i32 %5, i8 noundef zeroext 3, i32 %21)
  br label %_ZN4Luau7CodeGenL18builtinCheckDoubleERNS0_9IrBuilderENS0_4IrOpEi.exit49

_ZN4Luau7CodeGenL18builtinCheckDoubleERNS0_9IrBuilderENS0_4IrOpEi.exit49: ; preds = %_ZN4Luau7CodeGenL18builtinCheckDoubleERNS0_9IrBuilderENS0_4IrOpEi.exit, %20
  %22 = tail call i32 @_ZN4Luau7CodeGen9IrBuilder5vmRegEh(ptr noundef nonnull align 8 dereferenceable(752) %0, i8 noundef zeroext %12)
  %23 = and i32 %22, 15
  %24 = icmp eq i32 %23, 2
  br i1 %24, label %_ZN4Luau7CodeGenL17builtinLoadDoubleERNS0_9IrBuilderENS0_4IrOpE.exit, label %25

25:                                               ; preds = %_ZN4Luau7CodeGenL18builtinCheckDoubleERNS0_9IrBuilderENS0_4IrOpEi.exit49
  %26 = tail call i32 @_ZN4Luau7CodeGen9IrBuilder4instENS0_5IrCmdENS0_4IrOpE(ptr noundef nonnull align 8 dereferenceable(752) %0, i8 noundef zeroext 3, i32 %22)
  br label %_ZN4Luau7CodeGenL17builtinLoadDoubleERNS0_9IrBuilderENS0_4IrOpE.exit

_ZN4Luau7CodeGenL17builtinLoadDoubleERNS0_9IrBuilderENS0_4IrOpE.exit: ; preds = %_ZN4Luau7CodeGenL18builtinCheckDoubleERNS0_9IrBuilderENS0_4IrOpEi.exit49, %25
  %.sroa.03.0.i = phi i32 [ %26, %25 ], [ %22, %_ZN4Luau7CodeGenL18builtinCheckDoubleERNS0_9IrBuilderENS0_4IrOpEi.exit49 ]
  br i1 %19, label %_ZN4Luau7CodeGenL17builtinLoadDoubleERNS0_9IrBuilderENS0_4IrOpE.exit51, label %27

27:                                               ; preds = %_ZN4Luau7CodeGenL17builtinLoadDoubleERNS0_9IrBuilderENS0_4IrOpE.exit
  %28 = tail call i32 @_ZN4Luau7CodeGen9IrBuilder4instENS0_5IrCmdENS0_4IrOpE(ptr noundef nonnull align 8 dereferenceable(752) %0, i8 noundef zeroext 3, i32 %5)
  br label %_ZN4Luau7CodeGenL17builtinLoadDoubleERNS0_9IrBuilderENS0_4IrOpE.exit51

_ZN4Luau7CodeGenL17builtinLoadDoubleERNS0_9IrBuilderENS0_4IrOpE.exit51: ; preds = %_ZN4Luau7CodeGenL17builtinLoadDoubleERNS0_9IrBuilderENS0_4IrOpE.exit, %27
  %.sroa.03.0.i50 = phi i32 [ %28, %27 ], [ %5, %_ZN4Luau7CodeGenL17builtinLoadDoubleERNS0_9IrBuilderENS0_4IrOpE.exit ]
  %29 = tail call i32 @_ZN4Luau7CodeGen9IrBuilder4instENS0_5IrCmdENS0_4IrOpE(ptr noundef nonnull align 8 dereferenceable(752) %0, i8 noundef zeroext 66, i32 %.sroa.03.0.i)
  %30 = tail call i32 @_ZN4Luau7CodeGen9IrBuilder4instENS0_5IrCmdENS0_4IrOpE(ptr noundef nonnull align 8 dereferenceable(752) %0, i8 noundef zeroext 65, i32 %.sroa.03.0.i50)
  %31 = tail call i32 @_ZN4Luau7CodeGen9IrBuilder4instENS0_5IrCmdENS0_4IrOpES3_(ptr noundef nonnull align 8 dereferenceable(752) %0, i8 noundef zeroext %1, i32 %29, i32 %30)
  %32 = tail call i32 @_ZN4Luau7CodeGen9IrBuilder4instENS0_5IrCmdENS0_4IrOpE(ptr noundef nonnull align 8 dereferenceable(752) %0, i8 noundef zeroext 64, i32 %31)
  %33 = trunc i32 %3 to i8
  %34 = tail call i32 @_ZN4Luau7CodeGen9IrBuilder5vmRegEh(ptr noundef nonnull align 8 dereferenceable(752) %0, i8 noundef zeroext %33)
  %35 = tail call i32 @_ZN4Luau7CodeGen9IrBuilder4instENS0_5IrCmdENS0_4IrOpES3_(ptr noundef nonnull align 8 dereferenceable(752) %0, i8 noundef zeroext 15, i32 %34, i32 %32)
  %.not = icmp eq i32 %3, %4
  br i1 %.not, label %40, label %36

36:                                               ; preds = %_ZN4Luau7CodeGenL17builtinLoadDoubleERNS0_9IrBuilderENS0_4IrOpE.exit51
  %37 = tail call i32 @_ZN4Luau7CodeGen9IrBuilder5vmRegEh(ptr noundef nonnull align 8 dereferenceable(752) %0, i8 noundef zeroext %33)
  %38 = tail call i32 @_ZN4Luau7CodeGen9IrBuilder8constTagEh(ptr noundef nonnull align 8 dereferenceable(752) %0, i8 noundef zeroext 3)
  %39 = tail call i32 @_ZN4Luau7CodeGen9IrBuilder4instENS0_5IrCmdENS0_4IrOpES3_(ptr noundef nonnull align 8 dereferenceable(752) %0, i8 noundef zeroext 12, i32 %37, i32 %38)
  br label %40

40:                                               ; preds = %_ZN4Luau7CodeGenL17builtinLoadDoubleERNS0_9IrBuilderENS0_4IrOpE.exit51, %36, %8
  %.sroa.048.0.insert.insert = phi i64 [ -4294967296, %8 ], [ 4294967298, %36 ], [ 4294967298, %_ZN4Luau7CodeGenL17builtinLoadDoubleERNS0_9IrBuilderENS0_4IrOpE.exit51 ]
  ret i64 %.sroa.048.0.insert.insert
}